target datalayout = "e-m:e-p270:32:32-p271:32:32-p272:64:64-i64:64-i128:128-f80:128-n8:16:32:64-S128"
target triple = "x86_64-pc-linux-gnu"

%class.Jipopt = type { %"class.Ipopt::TNLP.base", ptr, ptr, i32, i32, i32, i32, i32, ptr, ptr, ptr, ptr, ptr, ptr, ptr, ptr, ptr, i8, i8, %"class.Ipopt::SmartPtr", ptr, ptr, ptr, ptr, ptr, ptr, ptr, ptr, ptr, ptr, ptr }
%"class.Ipopt::TNLP.base" = type { %"class.Ipopt::ReferencedObject.base" }
%"class.Ipopt::ReferencedObject.base" = type <{ ptr, i32 }>
%"class.Ipopt::SmartPtr" = type { ptr }
%struct.JNIEnv_ = type { ptr }
%struct.JNINativeInterface_ = type { ptr, ptr, ptr, ptr, ptr, ptr, ptr, ptr, ptr, ptr, ptr, ptr, ptr, ptr, ptr, ptr, ptr, ptr, ptr, ptr, ptr, ptr, ptr, ptr, ptr, ptr, ptr, ptr, ptr, ptr, ptr, ptr, ptr, ptr, ptr, ptr, ptr, ptr, ptr, ptr, ptr, ptr, ptr, ptr, ptr, ptr, ptr, ptr, ptr, ptr, ptr, ptr, ptr, ptr, ptr, ptr, ptr, ptr, ptr, ptr, ptr, ptr, ptr, ptr, ptr, ptr, ptr, ptr, ptr, ptr, ptr, ptr, ptr, ptr, ptr, ptr, ptr, ptr, ptr, ptr, ptr, ptr, ptr, ptr, ptr, ptr, ptr, ptr, ptr, ptr, ptr, ptr, ptr, ptr, ptr, ptr, ptr, ptr, ptr, ptr, ptr, ptr, ptr, ptr, ptr, ptr, ptr, ptr, ptr, ptr, ptr, ptr, ptr, ptr, ptr, ptr, ptr, ptr, ptr, ptr, ptr, ptr, ptr, ptr, ptr, ptr, ptr, ptr, ptr, ptr, ptr, ptr, ptr, ptr, ptr, ptr, ptr, ptr, ptr, ptr, ptr, ptr, ptr, ptr, ptr, ptr, ptr, ptr, ptr, ptr, ptr, ptr, ptr, ptr, ptr, ptr, ptr, ptr, ptr, ptr, ptr, ptr, ptr, ptr, ptr, ptr, ptr, ptr, ptr, ptr, ptr, ptr, ptr, ptr, ptr, ptr, ptr, ptr, ptr, ptr, ptr, ptr, ptr, ptr, ptr, ptr, ptr, ptr, ptr, ptr, ptr, ptr, ptr, ptr, ptr, ptr, ptr, ptr, ptr, ptr, ptr, ptr, ptr, ptr, ptr, ptr, ptr, ptr, ptr, ptr, ptr, ptr, ptr, ptr, ptr, ptr, ptr, ptr, ptr, ptr, ptr, ptr, ptr, ptr, ptr, ptr, ptr, ptr, ptr, ptr, ptr, ptr, ptr, ptr }

; Function Attrs: mustprogress uwtable
define linkonce_odr void @_ZN7JNIEnv_27ReleaseBooleanArrayElementsEP14_jbooleanArrayPhi(ptr noundef nonnull align 8 dereferenceable(8) %0, ptr noundef %1, ptr noundef %2, i32 noundef %3) #4 comdat align 2 {
  %5 = alloca ptr, align 8
  %6 = alloca ptr, align 8
  %7 = alloca ptr, align 8
  %8 = alloca i32, align 4
  store ptr %0, ptr %5, align 8, !tbaa !8
  store ptr %1, ptr %6, align 8, !tbaa !122
  store ptr %2, ptr %7, align 8, !tbaa !89
  store i32 %3, ptr %8, align 4, !tbaa !12
  %9 = load ptr, ptr %5, align 8
  %10 = getelementptr inbounds nuw %struct.JNIEnv_, ptr %9, i32 0, i32 0
  %11 = load ptr, ptr %10, align 8, !tbaa !84
  %12 = getelementptr inbounds nuw %struct.JNINativeInterface_, ptr %11, i32 0, i32 191
  %13 = load ptr, ptr %12, align 8, !tbaa !126
  %14 = load ptr, ptr %6, align 8, !tbaa !122
  %15 = load ptr, ptr %7, align 8, !tbaa !89
  %16 = load i32, ptr %8, align 4, !tbaa !12
  call void %13(ptr noundef %9, ptr noundef %14, ptr noundef %15, i32 noundef %16)
  ret void
}

; Function Attrs: mustprogress uwtable
define linkonce_odr void @_ZN7JNIEnv_20GetDoubleArrayRegionEP13_jdoubleArrayiiPd(ptr noundef nonnull align 8 dereferenceable(8) %0, ptr noundef %1, i32 noundef %2, i32 noundef %3, ptr noundef %4) #4 comdat align 2 {
  %6 = alloca ptr, align 8
  %7 = alloca ptr, align 8
  %8 = alloca i32, align 4
  %9 = alloca i32, align 4
  %10 = alloca ptr, align 8
  store ptr %0, ptr %6, align 8, !tbaa !8
  store ptr %1, ptr %7, align 8, !tbaa !101
  store i32 %2, ptr %8, align 4, !tbaa !12
  store i32 %3, ptr %9, align 4, !tbaa !12
  store ptr %4, ptr %10, align 8, !tbaa !99
  %11 = load ptr, ptr %6, align 8
  %12 = getelementptr inbounds nuw %struct.JNIEnv_, ptr %11, i32 0, i32 0
  %13 = load ptr, ptr %12, align 8, !tbaa !84
  %14 = getelementptr inbounds nuw %struct.JNINativeInterface_, ptr %13, i32 0, i32 206
  %15 = load ptr, ptr %14, align 8, !tbaa !106
  %16 = load ptr, ptr %7, align 8, !tbaa !101
  %17 = load i32, ptr %8, align 4, !tbaa !12
  %18 = load i32, ptr %9, align 4, !tbaa !12
  %19 = load ptr, ptr %10, align 8, !tbaa !99
  call void %15(ptr noundef %11, ptr noundef %16, i32 noundef %17, i32 noundef %18, ptr noundef %19)
  ret void
}

; Function Attrs: mustprogress uwtable
define linkonce_odr noundef ptr @_ZN7JNIEnv_23GetBooleanArrayElementsEP14_jbooleanArrayPh(ptr noundef nonnull align 8 dereferenceable(8) %0, ptr noundef %1, ptr noundef %2) #4 comdat align 2 {
  %4 = alloca ptr, align 8
  %5 = alloca ptr, align 8
  %6 = alloca ptr, align 8
  store ptr %0, ptr %4, align 8, !tbaa !8
  store ptr %1, ptr %5, align 8, !tbaa !122
  store ptr %2, ptr %6, align 8, !tbaa !89
  %7 = load ptr, ptr %4, align 8
  %8 = getelementptr inbounds nuw %struct.JNIEnv_, ptr %7, i32 0, i32 0
  %9 = load ptr, ptr %8, align 8, !tbaa !84
  %10 = getelementptr inbounds nuw %struct.JNINativeInterface_, ptr %9, i32 0, i32 183
  %11 = load ptr, ptr %10, align 8, !tbaa !125
  %12 = load ptr, ptr %5, align 8, !tbaa !122
  %13 = load ptr, ptr %6, align 8, !tbaa !89
  %14 = call noundef ptr %11(ptr noundef %7, ptr noundef %12, ptr noundef %13)
  ret ptr %14
}

; Function Attrs: mustprogress uwtable
define linkonce_odr noundef ptr @_ZN7JNIEnv_15NewBooleanArrayEi(ptr noundef nonnull align 8 dereferenceable(8) %0, i32 noundef %1) #4 comdat align 2 {
  %3 = alloca ptr, align 8
  %4 = alloca i32, align 4
  store ptr %0, ptr %3, align 8, !tbaa !8
  store i32 %1, ptr %4, align 4, !tbaa !12
  %5 = load ptr, ptr %3, align 8
  %6 = getelementptr inbounds nuw %struct.JNIEnv_, ptr %5, i32 0, i32 0
  %7 = load ptr, ptr %6, align 8, !tbaa !84
  %8 = getelementptr inbounds nuw %struct.JNINativeInterface_, ptr %7, i32 0, i32 175
  %9 = load ptr, ptr %8, align 8, !tbaa !124
  %10 = load i32, ptr %4, align 4, !tbaa !12
  %11 = call noundef ptr %9(ptr noundef %5, i32 noundef %10)
  ret ptr %11
}

; Function Attrs: mustprogress uwtable
define linkonce_odr noundef ptr @_ZN7JNIEnv_14NewDoubleArrayEi(ptr noundef nonnull align 8 dereferenceable(8) %0, i32 noundef %1) #4 comdat align 2 {
  %3 = alloca ptr, align 8
  %4 = alloca i32, align 4
  store ptr %0, ptr %3, align 8, !tbaa !8
  store i32 %1, ptr %4, align 4, !tbaa !12
  %5 = load ptr, ptr %3, align 8
  %6 = getelementptr inbounds nuw %struct.JNIEnv_, ptr %5, i32 0, i32 0
  %7 = load ptr, ptr %6, align 8, !tbaa !84
  %8 = getelementptr inbounds nuw %struct.JNINativeInterface_, ptr %7, i32 0, i32 182
  %9 = load ptr, ptr %8, align 8, !tbaa !102
  %10 = load i32, ptr %4, align 4, !tbaa !12
  %11 = call noundef ptr %9(ptr noundef %5, i32 noundef %10)
  ret ptr %11
}

; Function Attrs: mustprogress uwtable
define noundef zeroext i1 @_ZN6Jipopt22get_scaling_parametersERdRbiPdS1_iS2_(ptr noundef nonnull align 8 dereferenceable(232) %0, ptr noundef nonnull align 8 dereferenceable(8) %1, ptr noundef nonnull align 1 dereferenceable(1) %2, i32 noundef %3, ptr noundef %4, ptr noundef nonnull align 1 dereferenceable(1) %5, i32 noundef %6, ptr noundef %7) unnamed_addr #4 align 2 {
  %9 = alloca i1, align 1
  %10 = alloca ptr, align 8
  %11 = alloca ptr, align 8
  %12 = alloca ptr, align 8
  %13 = alloca i32, align 4
  %14 = alloca ptr, align 8
  %15 = alloca ptr, align 8
  %16 = alloca i32, align 4
  %17 = alloca ptr, align 8
  %18 = alloca ptr, align 8
  %19 = alloca ptr, align 8
  %20 = alloca ptr, align 8
  %21 = alloca ptr, align 8
  %22 = alloca ptr, align 8
  store ptr %0, ptr %10, align 8, !tbaa !3
  store ptr %1, ptr %11, align 8, !tbaa !99
  store ptr %2, ptr %12, align 8, !tbaa !120
  store i32 %3, ptr %13, align 4, !tbaa !12
  store ptr %4, ptr %14, align 8, !tbaa !99
  store ptr %5, ptr %15, align 8, !tbaa !120
  store i32 %6, ptr %16, align 4, !tbaa !12
  store ptr %7, ptr %17, align 8, !tbaa !99
  %23 = load ptr, ptr %10, align 8
  %24 = getelementptr inbounds nuw %class.Jipopt, ptr %23, i32 0, i32 17
  %25 = load i8, ptr %24, align 8, !tbaa !39
  %26 = icmp ne i8 %25, 0
  br i1 %26, label %28, label %27

27:                                               ; preds = %8
  store i1 false, ptr %9, align 1
  br label %96

28:                                               ; preds = %8
  call void @llvm.lifetime.start.p0(i64 8, ptr %18) #3
  %29 = getelementptr inbounds nuw %class.Jipopt, ptr %23, i32 0, i32 1
  %30 = load ptr, ptr %29, align 8, !tbaa !16
  %31 = call noundef ptr @_ZN7JNIEnv_14NewDoubleArrayEi(ptr noundef nonnull align 8 dereferenceable(8) %30, i32 noundef 1)
  store ptr %31, ptr %18, align 8, !tbaa !101
  call void @llvm.lifetime.start.p0(i64 8, ptr %19) #3
  %32 = getelementptr inbounds nuw %class.Jipopt, ptr %23, i32 0, i32 1
  %33 = load ptr, ptr %32, align 8, !tbaa !16
  %34 = load i32, ptr %13, align 4, !tbaa !12
  %35 = call noundef ptr @_ZN7JNIEnv_14NewDoubleArrayEi(ptr noundef nonnull align 8 dereferenceable(8) %33, i32 noundef %34)
  store ptr %35, ptr %19, align 8, !tbaa !101
  call void @llvm.lifetime.start.p0(i64 8, ptr %20) #3
  %36 = getelementptr inbounds nuw %class.Jipopt, ptr %23, i32 0, i32 1
  %37 = load ptr, ptr %36, align 8, !tbaa !16
  %38 = load i32, ptr %16, align 4, !tbaa !12
  %39 = call noundef ptr @_ZN7JNIEnv_14NewDoubleArrayEi(ptr noundef nonnull align 8 dereferenceable(8) %37, i32 noundef %38)
  store ptr %39, ptr %20, align 8, !tbaa !101
  call void @llvm.lifetime.start.p0(i64 8, ptr %21) #3
  %40 = getelementptr inbounds nuw %class.Jipopt, ptr %23, i32 0, i32 1
  %41 = load ptr, ptr %40, align 8, !tbaa !16
  %42 = call noundef ptr @_ZN7JNIEnv_15NewBooleanArrayEi(ptr noundef nonnull align 8 dereferenceable(8) %41, i32 noundef 2)
  store ptr %42, ptr %21, align 8, !tbaa !122
  %43 = getelementptr inbounds nuw %class.Jipopt, ptr %23, i32 0, i32 1
  %44 = load ptr, ptr %43, align 8, !tbaa !16
  %45 = getelementptr inbounds nuw %class.Jipopt, ptr %23, i32 0, i32 2
  %46 = load ptr, ptr %45, align 8, !tbaa !24
  %47 = getelementptr inbounds nuw %class.Jipopt, ptr %23, i32 0, i32 28
  %48 = load ptr, ptr %47, align 8, !tbaa !50
  %49 = load ptr, ptr %18, align 8, !tbaa !101
  %50 = load i32, ptr %13, align 4, !tbaa !12
  %51 = load ptr, ptr %19, align 8, !tbaa !101
  %52 = load i32, ptr %16, align 4, !tbaa !12
  %53 = load ptr, ptr %20, align 8, !tbaa !101
  %54 = load ptr, ptr %21, align 8, !tbaa !122
  %55 = call noundef zeroext i8 (ptr, ptr, ptr, ...) @_ZN7JNIEnv_17CallBooleanMethodEP8_jobjectP10_jmethodIDz(ptr noundef nonnull align 8 dereferenceable(8) %44, ptr noundef %46, ptr noundef %48, ptr noundef %49, i32 noundef %50, ptr noundef %51, i32 noundef %52, ptr noundef %53, ptr noundef %54)
  call void @llvm.lifetime.start.p0(i64 8, ptr %22) #3
  %56 = getelementptr inbounds nuw %class.Jipopt, ptr %23, i32 0, i32 1
  %57 = load ptr, ptr %56, align 8, !tbaa !16
  %58 = load ptr, ptr %21, align 8, !tbaa !122
  %59 = call noundef ptr @_ZN7JNIEnv_23GetBooleanArrayElementsEP14_jbooleanArrayPh(ptr noundef nonnull align 8 dereferenceable(8) %57, ptr noundef %58, ptr noundef null)
  store ptr %59, ptr %22, align 8, !tbaa !89
  %60 = getelementptr inbounds nuw %class.Jipopt, ptr %23, i32 0, i32 1
  %61 = load ptr, ptr %60, align 8, !tbaa !16
  %62 = load ptr, ptr %18, align 8, !tbaa !101
  %63 = load ptr, ptr %11, align 8, !tbaa !99
  call void @_ZN7JNIEnv_20GetDoubleArrayRegionEP13_jdoubleArrayiiPd(ptr noundef nonnull align 8 dereferenceable(8) %61, ptr noundef %62, i32 noundef 0, i32 noundef 1, ptr noundef %63)
  %64 = load ptr, ptr %22, align 8, !tbaa !89
  %65 = getelementptr inbounds i8, ptr %64, i64 0
  %66 = load i8, ptr %65, align 1, !tbaa !105
  %67 = icmp ne i8 %66, 0
  br i1 %67, label %68, label %75

68:                                               ; preds = %28
  %69 = getelementptr inbounds nuw %class.Jipopt, ptr %23, i32 0, i32 1
  %70 = load ptr, ptr %69, align 8, !tbaa !16
  %71 = load ptr, ptr %19, align 8, !tbaa !101
  %72 = load i32, ptr %13, align 4, !tbaa !12
  %73 = load ptr, ptr %14, align 8, !tbaa !99
  call void @_ZN7JNIEnv_20GetDoubleArrayRegionEP13_jdoubleArrayiiPd(ptr noundef nonnull align 8 dereferenceable(8) %70, ptr noundef %71, i32 noundef 0, i32 noundef %72, ptr noundef %73)
  %74 = load ptr, ptr %12, align 8, !tbaa !120
  store i8 1, ptr %74, align 1, !tbaa !60
  br label %77

75:                                               ; preds = %28
  %76 = load ptr, ptr %12, align 8, !tbaa !120
  store i8 0, ptr %76, align 1, !tbaa !60
  br label %77

77:                                               ; preds = %75, %68
  %78 = load ptr, ptr %22, align 8, !tbaa !89
  %79 = getelementptr inbounds i8, ptr %78, i64 1
  %80 = load i8, ptr %79, align 1, !tbaa !105
  %81 = icmp ne i8 %80, 0
  br i1 %81, label %82, label %89

82:                                               ; preds = %77
  %83 = getelementptr inbounds nuw %class.Jipopt, ptr %23, i32 0, i32 1
  %84 = load ptr, ptr %83, align 8, !tbaa !16
  %85 = load ptr, ptr %20, align 8, !tbaa !101
  %86 = load i32, ptr %13, align 4, !tbaa !12
  %87 = load ptr, ptr %17, align 8, !tbaa !99
  call void @_ZN7JNIEnv_20GetDoubleArrayRegionEP13_jdoubleArrayiiPd(ptr noundef nonnull align 8 dereferenceable(8) %84, ptr noundef %85, i32 noundef 0, i32 noundef %86, ptr noundef %87)
  %88 = load ptr, ptr %15, align 8, !tbaa !120
  store i8 1, ptr %88, align 1, !tbaa !60
  br label %91

89:                                               ; preds = %77
  %90 = load ptr, ptr %15, align 8, !tbaa !120
  store i8 0, ptr %90, align 1, !tbaa !60
  br label %91

91:                                               ; preds = %89, %82
  %92 = getelementptr inbounds nuw %class.Jipopt, ptr %23, i32 0, i32 1
  %93 = load ptr, ptr %92, align 8, !tbaa !16
  %94 = load ptr, ptr %21, align 8, !tbaa !122
  %95 = load ptr, ptr %22, align 8, !tbaa !89
  call void @_ZN7JNIEnv_27ReleaseBooleanArrayElementsEP14_jbooleanArrayPhi(ptr noundef nonnull align 8 dereferenceable(8) %93, ptr noundef %94, ptr noundef %95, i32 noundef 0)
  store i1 true, ptr %9, align 1
  call void @llvm.lifetime.end.p0(i64 8, ptr %22) #3
  call void @llvm.lifetime.end.p0(i64 8, ptr %21) #3
  call void @llvm.lifetime.end.p0(i64 8, ptr %20) #3
  call void @llvm.lifetime.end.p0(i64 8, ptr %19) #3
  call void @llvm.lifetime.end.p0(i64 8, ptr %18) #3
  br label %96

96:                                               ; preds = %91, %27
  %97 = load i1, ptr %9, align 1
  ret i1 %97
}