; Function Attrs: mustprogress uwtable
define noundef zeroext i1 @_ZN6Jipopt22get_scaling_parametersERdRbiPdS1_iS2_(ptr noundef nonnull readonly align 8 captures(none) dereferenceable(232) %0, ptr noundef nonnull align 8 dereferenceable(8) %1, ptr noundef nonnull writeonly align 1 captures(none) dereferenceable(1) %2, i32 noundef %3, ptr noundef %4, ptr noundef nonnull writeonly align 1 captures(none) dereferenceable(1) %5, i32 noundef %6, ptr noundef %7) unnamed_addr #3 align 2 {
  %9 = getelementptr inbounds nuw i8, ptr %0, i64 128
  %10 = load i8, ptr %9, align 8, !tbaa !108
  %.not = icmp ne i8 %10, 0
  br i1 %.not, label %11, label %67

11:                                               ; preds = %8
  %12 = getelementptr inbounds nuw i8, ptr %0, i64 16
  %13 = load ptr, ptr %12, align 8, !tbaa !10
  %14 = load ptr, ptr %13, align 8, !tbaa !48
  %15 = getelementptr inbounds nuw i8, ptr %14, i64 1456
  %16 = load ptr, ptr %15, align 8, !tbaa !91
  %17 = tail call noundef ptr %16(ptr noundef nonnull align 8 dereferenceable(8) %13, i32 noundef 1)
  %18 = load ptr, ptr %12, align 8, !tbaa !10
  %19 = load ptr, ptr %18, align 8, !tbaa !48
  %20 = getelementptr inbounds nuw i8, ptr %19, i64 1456
  %21 = load ptr, ptr %20, align 8, !tbaa !91
  %22 = tail call noundef ptr %21(ptr noundef nonnull align 8 dereferenceable(8) %18, i32 noundef %3)
  %23 = load ptr, ptr %12, align 8, !tbaa !10
  %24 = load ptr, ptr %23, align 8, !tbaa !48
  %25 = getelementptr inbounds nuw i8, ptr %24, i64 1456
  %26 = load ptr, ptr %25, align 8, !tbaa !91
  %27 = tail call noundef ptr %26(ptr noundef nonnull align 8 dereferenceable(8) %23, i32 noundef %6)
  %28 = load ptr, ptr %12, align 8, !tbaa !10
  %29 = load ptr, ptr %28, align 8, !tbaa !48
  %30 = getelementptr inbounds nuw i8, ptr %29, i64 1400
  %31 = load ptr, ptr %30, align 8, !tbaa !109
  %32 = tail call noundef ptr %31(ptr noundef nonnull align 8 dereferenceable(8) %28, i32 noundef 2)
  %33 = load ptr, ptr %12, align 8, !tbaa !10
  %34 = getelementptr inbounds nuw i8, ptr %0, i64 24
  %35 = load ptr, ptr %34, align 8, !tbaa !20
  %36 = getelementptr inbounds nuw i8, ptr %0, i64 208
  %37 = load ptr, ptr %36, align 8, !tbaa !61
  %38 = tail call noundef zeroext i8 (ptr, ptr, ptr, ...) @_ZN7JNIEnv_17CallBooleanMethodEP8_jobjectP10_jmethodIDz(ptr noundef nonnull align 8 dereferenceable(8) %33, ptr noundef %35, ptr noundef %37, ptr noundef %17, i32 noundef %3, ptr noundef %22, i32 noundef %6, ptr noundef %27, ptr noundef %32)
  %39 = load ptr, ptr %12, align 8, !tbaa !10
  %40 = load ptr, ptr %39, align 8, !tbaa !48
  %41 = getelementptr inbounds nuw i8, ptr %40, i64 1464
  %42 = load ptr, ptr %41, align 8, !tbaa !110
  %43 = tail call noundef ptr %42(ptr noundef nonnull align 8 dereferenceable(8) %39, ptr noundef %32, ptr noundef null)
  %44 = load ptr, ptr %12, align 8, !tbaa !10
  %45 = load ptr, ptr %44, align 8, !tbaa !48
  %46 = getelementptr inbounds nuw i8, ptr %45, i64 1648
  %47 = load ptr, ptr %46, align 8, !tbaa !92
  tail call void %47(ptr noundef nonnull align 8 dereferenceable(8) %44, ptr noundef %17, i32 noundef 0, i32 noundef 1, ptr noundef nonnull %1)
  %48 = load i8, ptr %43, align 1, !tbaa !87
  %.not26 = icmp eq i8 %48, 0
  br i1 %.not26, label %54, label %49

49:                                               ; preds = %11
  %50 = load ptr, ptr %12, align 8, !tbaa !10
  %51 = load ptr, ptr %50, align 8, !tbaa !48
  %52 = getelementptr inbounds nuw i8, ptr %51, i64 1648
  %53 = load ptr, ptr %52, align 8, !tbaa !92
  tail call void %53(ptr noundef nonnull align 8 dereferenceable(8) %50, ptr noundef %22, i32 noundef 0, i32 noundef %3, ptr noundef %4)
  br label %54

54:                                               ; preds = %11, %49
  %storemerge = phi i8 [ 1, %49 ], [ 0, %11 ]
  store i8 %storemerge, ptr %2, align 1, !tbaa !111
  %55 = getelementptr inbounds nuw i8, ptr %43, i64 1
  %56 = load i8, ptr %55, align 1, !tbaa !87
  %.not27 = icmp eq i8 %56, 0
  br i1 %.not27, label %62, label %57

57:                                               ; preds = %54
  %58 = load ptr, ptr %12, align 8, !tbaa !10
  %59 = load ptr, ptr %58, align 8, !tbaa !48
  %60 = getelementptr inbounds nuw i8, ptr %59, i64 1648
  %61 = load ptr, ptr %60, align 8, !tbaa !92
  tail call void %61(ptr noundef nonnull align 8 dereferenceable(8) %58, ptr noundef %27, i32 noundef 0, i32 noundef %3, ptr noundef %7)
  br label %62

62:                                               ; preds = %54, %57
  %storemerge28 = phi i8 [ 1, %57 ], [ 0, %54 ]
  store i8 %storemerge28, ptr %5, align 1, !tbaa !111
  %63 = load ptr, ptr %12, align 8, !tbaa !10
  %64 = load ptr, ptr %63, align 8, !tbaa !48
  %65 = getelementptr inbounds nuw i8, ptr %64, i64 1528
  %66 = load ptr, ptr %65, align 8, !tbaa !112
  tail call void %66(ptr noundef nonnull align 8 dereferenceable(8) %63, ptr noundef %32, ptr noundef nonnull %43, i32 noundef 0)
  br label %67

67:                                               ; preds = %8, %62
  ret i1 %.not
}